target datalayout = "e-m:e-p270:32:32-p271:32:32-p272:64:64-i64:64-i128:128-f80:128-n8:16:32:64-S128"
target triple = "x86_64-pc-linux-gnu"

%struct.Vec_Int_t_ = type { i32, i32, ptr }
%struct.sat_solver_t = type { i32, i32, i32, i32, %struct.Sat_Mem_t_, i32, i32, ptr, ptr, i32, i32, i32, i32, i32, i64, i64, i64, ptr, ptr, i32, i32, %struct.veci_t, ptr, i32, ptr, ptr, ptr, ptr, ptr, ptr, ptr, ptr, %struct.veci_t, %struct.veci_t, %struct.veci_t, %struct.veci_t, ptr, %struct.veci_t, i32, i32, i32, double, double, i32, i32, i32, %struct.stats_t, i32, i32, i32, i32, i32, i64, i64, i64, %struct.veci_t, ptr, i32, i32, i32, %struct.veci_t, %struct.veci_t, i32, i32, i32, ptr, ptr, i32, ptr, i32, i32, %struct.veci_t, %struct.veci_t, %struct.veci_t, ptr, ptr, i32, ptr }
%struct.Sat_Mem_t_ = type { [2 x i32], [2 x i32], [2 x i32], [2 x i32], i32, i32, i32, i32, ptr }
%struct.stats_t = type { i32, i32, i32, i64, i64, i64, i64, i64, i64, i64 }
%struct.veci_t = type { i32, i32, ptr }
%struct.Qbf_Man_t_ = type { ptr, i32, i32, i32, i32, ptr, ptr, ptr, ptr, ptr, ptr, i64, i64 }

; Function Attrs: inlinehint nounwind uwtable
define internal void @Vec_IntGrow(ptr noundef %0, i32 noundef %1) #2 {
  %3 = alloca ptr, align 8
  %4 = alloca i32, align 4
  store ptr %0, ptr %3, align 8, !tbaa !10
  store i32 %1, ptr %4, align 4, !tbaa !8
  %5 = load ptr, ptr %3, align 8, !tbaa !10
  %6 = getelementptr inbounds nuw %struct.Vec_Int_t_, ptr %5, i32 0, i32 0
  %7 = load i32, ptr %6, align 8, !tbaa !19
  %8 = load i32, ptr %4, align 4, !tbaa !8
  %9 = icmp sge i32 %7, %8
  br i1 %9, label %10, label %11

10:                                               ; preds = %2
  br label %36

11:                                               ; preds = %2
  %12 = load ptr, ptr %3, align 8, !tbaa !10
  %13 = getelementptr inbounds nuw %struct.Vec_Int_t_, ptr %12, i32 0, i32 2
  %14 = load ptr, ptr %13, align 8, !tbaa !17
  %15 = icmp ne ptr %14, null
  br i1 %15, label %16, label %24

16:                                               ; preds = %11
  %17 = load ptr, ptr %3, align 8, !tbaa !10
  %18 = getelementptr inbounds nuw %struct.Vec_Int_t_, ptr %17, i32 0, i32 2
  %19 = load ptr, ptr %18, align 8, !tbaa !17
  %20 = load i32, ptr %4, align 4, !tbaa !8
  %21 = sext i32 %20 to i64
  %22 = mul i64 4, %21
  %23 = call ptr @realloc(ptr noundef %19, i64 noundef %22) #18
  br label %29

24:                                               ; preds = %11
  %25 = load i32, ptr %4, align 4, !tbaa !8
  %26 = sext i32 %25 to i64
  %27 = mul i64 4, %26
  %28 = call noalias ptr @malloc(i64 noundef %27) #16
  br label %29

29:                                               ; preds = %24, %16
  %30 = phi ptr [ %23, %16 ], [ %28, %24 ]
  %31 = load ptr, ptr %3, align 8, !tbaa !10
  %32 = getelementptr inbounds nuw %struct.Vec_Int_t_, ptr %31, i32 0, i32 2
  store ptr %30, ptr %32, align 8, !tbaa !17
  %33 = load i32, ptr %4, align 4, !tbaa !8
  %34 = load ptr, ptr %3, align 8, !tbaa !10
  %35 = getelementptr inbounds nuw %struct.Vec_Int_t_, ptr %34, i32 0, i32 0
  store i32 %33, ptr %35, align 8, !tbaa !19
  br label %36

36:                                               ; preds = %29, %10
  ret void
}

; Function Attrs: inlinehint nounwind uwtable
define internal void @Vec_IntPush(ptr noundef %0, i32 noundef %1) #2 {
  %3 = alloca ptr, align 8
  %4 = alloca i32, align 4
  store ptr %0, ptr %3, align 8, !tbaa !10
  store i32 %1, ptr %4, align 4, !tbaa !8
  %5 = load ptr, ptr %3, align 8, !tbaa !10
  %6 = getelementptr inbounds nuw %struct.Vec_Int_t_, ptr %5, i32 0, i32 1
  %7 = load i32, ptr %6, align 4, !tbaa !14
  %8 = load ptr, ptr %3, align 8, !tbaa !10
  %9 = getelementptr inbounds nuw %struct.Vec_Int_t_, ptr %8, i32 0, i32 0
  %10 = load i32, ptr %9, align 8, !tbaa !19
  %11 = icmp eq i32 %7, %10
  br i1 %11, label %12, label %26

12:                                               ; preds = %2
  %13 = load ptr, ptr %3, align 8, !tbaa !10
  %14 = getelementptr inbounds nuw %struct.Vec_Int_t_, ptr %13, i32 0, i32 0
  %15 = load i32, ptr %14, align 8, !tbaa !19
  %16 = icmp slt i32 %15, 16
  br i1 %16, label %17, label %19

17:                                               ; preds = %12
  %18 = load ptr, ptr %3, align 8, !tbaa !10
  call void @Vec_IntGrow(ptr noundef %18, i32 noundef 16)
  br label %25

19:                                               ; preds = %12
  %20 = load ptr, ptr %3, align 8, !tbaa !10
  %21 = load ptr, ptr %3, align 8, !tbaa !10
  %22 = getelementptr inbounds nuw %struct.Vec_Int_t_, ptr %21, i32 0, i32 0
  %23 = load i32, ptr %22, align 8, !tbaa !19
  %24 = mul nsw i32 2, %23
  call void @Vec_IntGrow(ptr noundef %20, i32 noundef %24)
  br label %25

25:                                               ; preds = %19, %17
  br label %26

26:                                               ; preds = %25, %2
  %27 = load i32, ptr %4, align 4, !tbaa !8
  %28 = load ptr, ptr %3, align 8, !tbaa !10
  %29 = getelementptr inbounds nuw %struct.Vec_Int_t_, ptr %28, i32 0, i32 2
  %30 = load ptr, ptr %29, align 8, !tbaa !17
  %31 = load ptr, ptr %3, align 8, !tbaa !10
  %32 = getelementptr inbounds nuw %struct.Vec_Int_t_, ptr %31, i32 0, i32 1
  %33 = load i32, ptr %32, align 4, !tbaa !14
  %34 = add nsw i32 %33, 1
  store i32 %34, ptr %32, align 4, !tbaa !14
  %35 = sext i32 %33 to i64
  %36 = getelementptr inbounds i32, ptr %30, i64 %35
  store i32 %27, ptr %36, align 4, !tbaa !8
  ret void
}

; Function Attrs: inlinehint nounwind uwtable
define internal i32 @sat_solver_var_value(ptr noundef %0, i32 noundef %1) #2 {
  %3 = alloca ptr, align 8
  %4 = alloca i32, align 4
  store ptr %0, ptr %3, align 8, !tbaa !82
  store i32 %1, ptr %4, align 4, !tbaa !8
  %5 = load ptr, ptr %3, align 8, !tbaa !82
  %6 = getelementptr inbounds nuw %struct.sat_solver_t, ptr %5, i32 0, i32 36
  %7 = load ptr, ptr %6, align 8, !tbaa !90
  %8 = load i32, ptr %4, align 4, !tbaa !8
  %9 = sext i32 %8 to i64
  %10 = getelementptr inbounds i32, ptr %7, i64 %9
  %11 = load i32, ptr %10, align 4, !tbaa !8
  %12 = icmp eq i32 %11, 1
  %13 = zext i1 %12 to i32
  ret i32 %13
}

; Function Attrs: inlinehint nounwind uwtable
define internal void @Vec_IntClear(ptr noundef %0) #2 {
  %2 = alloca ptr, align 8
  store ptr %0, ptr %2, align 8, !tbaa !10
  %3 = load ptr, ptr %2, align 8, !tbaa !10
  %4 = getelementptr inbounds nuw %struct.Vec_Int_t_, ptr %3, i32 0, i32 1
  store i32 0, ptr %4, align 4, !tbaa !14
  ret void
}

; Function Attrs: nounwind uwtable
define void @Gia_QbfOnePattern(ptr noundef %0, ptr noundef %1) #0 {
  %3 = alloca ptr, align 8
  %4 = alloca ptr, align 8
  %5 = alloca i32, align 4
  store ptr %0, ptr %3, align 8, !tbaa !104
  store ptr %1, ptr %4, align 8, !tbaa !10
  call void @llvm.lifetime.start.p0(i64 4, ptr %5) #14
  %6 = load ptr, ptr %4, align 8, !tbaa !10
  call void @Vec_IntClear(ptr noundef %6)
  store i32 0, ptr %5, align 4, !tbaa !8
  br label %7

7:                                                ; preds = %33, %2
  %8 = load i32, ptr %5, align 4, !tbaa !8
  %9 = load ptr, ptr %3, align 8, !tbaa !104
  %10 = getelementptr inbounds nuw %struct.Qbf_Man_t_, ptr %9, i32 0, i32 1
  %11 = load i32, ptr %10, align 8, !tbaa !109
  %12 = icmp slt i32 %8, %11
  br i1 %12, label %13, label %36

13:                                               ; preds = %7
  %14 = load ptr, ptr %4, align 8, !tbaa !10
  %15 = load ptr, ptr %3, align 8, !tbaa !104
  %16 = getelementptr inbounds nuw %struct.Qbf_Man_t_, ptr %15, i32 0, i32 7
  %17 = load ptr, ptr %16, align 8, !tbaa !115
  %18 = icmp ne ptr %17, null
  br i1 %18, label %19, label %25

19:                                               ; preds = %13
  %20 = load ptr, ptr %3, align 8, !tbaa !104
  %21 = getelementptr inbounds nuw %struct.Qbf_Man_t_, ptr %20, i32 0, i32 7
  %22 = load ptr, ptr %21, align 8, !tbaa !115
  %23 = load i32, ptr %5, align 4, !tbaa !8
  %24 = call i32 @bmcg_sat_solver_read_cex_varvalue(ptr noundef %22, i32 noundef %23)
  br label %31

25:                                               ; preds = %13
  %26 = load ptr, ptr %3, align 8, !tbaa !104
  %27 = getelementptr inbounds nuw %struct.Qbf_Man_t_, ptr %26, i32 0, i32 6
  %28 = load ptr, ptr %27, align 8, !tbaa !114
  %29 = load i32, ptr %5, align 4, !tbaa !8
  %30 = call i32 @sat_solver_var_value(ptr noundef %28, i32 noundef %29)
  br label %31

31:                                               ; preds = %25, %19
  %32 = phi i32 [ %24, %19 ], [ %30, %25 ]
  call void @Vec_IntPush(ptr noundef %14, i32 noundef %32)
  br label %33

33:                                               ; preds = %31
  %34 = load i32, ptr %5, align 4, !tbaa !8
  %35 = add nsw i32 %34, 1
  store i32 %35, ptr %5, align 4, !tbaa !8
  br label %7, !llvm.loop !138

36:                                               ; preds = %7
  call void @llvm.lifetime.end.p0(i64 4, ptr %5) #14
  ret void
}