; Function Attrs: nounwind uwtable
define void @Gia_QbfOnePattern(ptr noundef readonly captures(none) %0, ptr noundef captures(none) initializes((4, 8)) %1) local_unnamed_addr #0 {
  %3 = getelementptr inbounds nuw i8, ptr %1, i64 4
  store i32 0, ptr %3, align 4, !tbaa !11
  %4 = getelementptr inbounds nuw i8, ptr %0, i64 8
  %5 = load i32, ptr %4, align 8, !tbaa !100
  %6 = icmp sgt i32 %5, 0
  br i1 %6, label %.lr.ph, label %._crit_edge

.lr.ph:                                           ; preds = %2
  %7 = getelementptr inbounds nuw i8, ptr %0, i64 40
  %8 = getelementptr inbounds nuw i8, ptr %0, i64 32
  %.phi.trans.insert.i = getelementptr inbounds nuw i8, ptr %1, i64 8
  br label %9

9:                                                ; preds = %.lr.ph, %Vec_IntPush.exit
  %indvars.iv = phi i64 [ 0, %.lr.ph ], [ %indvars.iv.next, %Vec_IntPush.exit ]
  %10 = load ptr, ptr %7, align 8, !tbaa !106
  %.not = icmp eq ptr %10, null
  br i1 %.not, label %14, label %11

11:                                               ; preds = %9
  %12 = trunc nuw nsw i64 %indvars.iv to i32
  %13 = tail call i32 @bmcg_sat_solver_read_cex_varvalue(ptr noundef nonnull %10, i32 noundef %12) #29
  br label %21

14:                                               ; preds = %9
  %15 = load ptr, ptr %8, align 8, !tbaa !105
  %16 = getelementptr i8, ptr %15, i64 328
  %.val = load ptr, ptr %16, align 8, !tbaa !79
  %17 = getelementptr inbounds nuw i32, ptr %.val, i64 %indvars.iv
  %18 = load i32, ptr %17, align 4, !tbaa !12
  %19 = icmp eq i32 %18, 1
  %20 = zext i1 %19 to i32
  br label %21

21:                                               ; preds = %14, %11
  %22 = phi i32 [ %13, %11 ], [ %20, %14 ]
  %23 = load i32, ptr %3, align 4, !tbaa !11
  %24 = load i32, ptr %1, align 8, !tbaa !3
  %25 = icmp eq i32 %23, %24
  br i1 %25, label %26, label %.Vec_IntGrow.exit10_crit_edge.i

.Vec_IntGrow.exit10_crit_edge.i:                  ; preds = %21
  %.pre.i = load ptr, ptr %.phi.trans.insert.i, align 8, !tbaa !10
  br label %Vec_IntPush.exit

26:                                               ; preds = %21
  %27 = icmp slt i32 %23, 16
  br i1 %27, label %28, label %35

28:                                               ; preds = %26
  %29 = load ptr, ptr %.phi.trans.insert.i, align 8, !tbaa !10
  %.not9.i.i = icmp eq ptr %29, null
  br i1 %.not9.i.i, label %32, label %30

30:                                               ; preds = %28
  %31 = tail call dereferenceable_or_null(64) ptr @realloc(ptr noundef nonnull %29, i64 noundef 64) #30
  br label %Vec_IntGrow.exit.i

32:                                               ; preds = %28
  %33 = tail call noalias dereferenceable_or_null(64) ptr @malloc(i64 noundef 64) #28
  br label %Vec_IntGrow.exit.i

Vec_IntGrow.exit.i:                               ; preds = %32, %30
  %34 = phi ptr [ %31, %30 ], [ %33, %32 ]
  store ptr %34, ptr %.phi.trans.insert.i, align 8, !tbaa !10
  store i32 16, ptr %1, align 8, !tbaa !3
  br label %Vec_IntPush.exit

35:                                               ; preds = %26
  %36 = shl nuw nsw i32 %23, 1
  %37 = load ptr, ptr %.phi.trans.insert.i, align 8, !tbaa !10
  %.not9.i9.i = icmp eq ptr %37, null
  %38 = zext nneg i32 %36 to i64
  %39 = shl nuw nsw i64 %38, 2
  br i1 %.not9.i9.i, label %42, label %40

40:                                               ; preds = %35
  %41 = tail call ptr @realloc(ptr noundef nonnull %37, i64 noundef %39) #30
  br label %44

42:                                               ; preds = %35
  %43 = tail call noalias ptr @malloc(i64 noundef %39) #28
  br label %44

44:                                               ; preds = %42, %40
  %45 = phi ptr [ %41, %40 ], [ %43, %42 ]
  store ptr %45, ptr %.phi.trans.insert.i, align 8, !tbaa !10
  store i32 %36, ptr %1, align 8, !tbaa !3
  br label %Vec_IntPush.exit

Vec_IntPush.exit:                                 ; preds = %.Vec_IntGrow.exit10_crit_edge.i, %Vec_IntGrow.exit.i, %44
  %46 = phi ptr [ %.pre.i, %.Vec_IntGrow.exit10_crit_edge.i ], [ %45, %44 ], [ %34, %Vec_IntGrow.exit.i ]
  %47 = load i32, ptr %3, align 4, !tbaa !11
  %48 = add nsw i32 %47, 1
  store i32 %48, ptr %3, align 4, !tbaa !11
  %49 = sext i32 %47 to i64
  %50 = getelementptr inbounds i32, ptr %46, i64 %49
  store i32 %22, ptr %50, align 4, !tbaa !12
  %indvars.iv.next = add nuw nsw i64 %indvars.iv, 1
  %51 = load i32, ptr %4, align 8, !tbaa !100
  %52 = sext i32 %51 to i64
  %53 = icmp slt i64 %indvars.iv.next, %52
  br i1 %53, label %9, label %._crit_edge, !llvm.loop !129

._crit_edge:                                      ; preds = %Vec_IntPush.exit, %2
  ret void
}